target datalayout = "e-m:e-p270:32:32-p271:32:32-p272:64:64-i64:64-i128:128-f80:128-n8:16:32:64-S128"
target triple = "x86_64-pc-linux-gnu"

%"class.Ipopt::TNLPAdapter" = type { %"class.Ipopt::NLP.base", %"class.Ipopt::SmartPtr", %"class.Ipopt::SmartPtr.0", %"class.Ipopt::SmartPtr.1", double, double, i32, double, i32, double, double, i8, i32, i8, i32, i32, i32, i32, double, double, i8, double, i32, i32, i32, i32, i32, i32, i32, i32, i32, i32, %"class.Ipopt::SmartPtr.2", %"class.Ipopt::SmartPtr.2", %"class.Ipopt::SmartPtr.2", %"class.Ipopt::SmartPtr.2", %"class.Ipopt::SmartPtr.3", %"class.Ipopt::SmartPtr.2", %"class.Ipopt::SmartPtr.3", %"class.Ipopt::SmartPtr.2", %"class.Ipopt::SmartPtr.3", %"class.Ipopt::SmartPtr.2", %"class.Ipopt::SmartPtr.3", %"class.Ipopt::SmartPtr.3", %"class.Ipopt::SmartPtr.3", %"class.Ipopt::SmartPtr.4", ptr, ptr, ptr, ptr, ptr, i32, i32, i32, i32, i32, %"class.Ipopt::SmartPtr.5", %"class.Ipopt::SmartPtr.6", %"class.Ipopt::SmartPtr.5", %"class.Ipopt::SmartPtr.6", %"class.Ipopt::SmartPtr.5", %"class.Ipopt::SmartPtr.6", %"class.Ipopt::SmartPtr.6", %"class.Ipopt::SmartPtr.5", %"class.Ipopt::SmartPtr.6", %"class.Ipopt::SmartPtr.5", ptr, ptr, ptr, %"class.std::vector", %"class.std::vector", %"class.std::vector", i32, ptr, ptr, ptr, ptr, ptr }
%"class.Ipopt::NLP.base" = type { %"class.Ipopt::ReferencedObject.base" }
%"class.Ipopt::ReferencedObject.base" = type <{ ptr, i32 }>
%"class.Ipopt::SmartPtr" = type { ptr }
%"class.Ipopt::SmartPtr.0" = type { ptr }
%"class.Ipopt::SmartPtr.1" = type { ptr }
%"class.Ipopt::SmartPtr.2" = type { ptr }
%"class.Ipopt::SmartPtr.3" = type { ptr }
%"class.Ipopt::SmartPtr.4" = type { ptr }
%"class.Ipopt::SmartPtr.6" = type { ptr }
%"class.Ipopt::SmartPtr.5" = type { ptr }
%"class.std::vector" = type { %"struct.std::_Vector_base" }
%"struct.std::_Vector_base" = type { %"struct.std::_Vector_base<int, std::allocator<int>>::_Vector_impl" }
%"struct.std::_Vector_base<int, std::allocator<int>>::_Vector_impl" = type { %"struct.std::_Vector_base<int, std::allocator<int>>::_Vector_impl_data" }
%"struct.std::_Vector_base<int, std::allocator<int>>::_Vector_impl_data" = type { ptr, ptr, ptr }

; Function Attrs: mustprogress nounwind uwtable
define linkonce_odr noundef ptr @_ZNK5Ipopt8SmartPtrINS_4TNLPEEptEv(ptr noundef nonnull align 8 dereferenceable(8) %0) #5 comdat align 2 {
  %2 = alloca ptr, align 8
  store ptr %0, ptr %2, align 8, !tbaa !8
  %3 = load ptr, ptr %2, align 8
  %4 = getelementptr inbounds nuw %"class.Ipopt::SmartPtr", ptr %3, i32 0, i32 0
  %5 = load ptr, ptr %4, align 8, !tbaa !68
  ret ptr %5
}

; Function Attrs: mustprogress uwtable
define noundef zeroext i1 @_ZN5Ipopt11TNLPAdapter20IntermediateCallBackENS_13AlgorithmModeEiddddddddiPKNS_9IpoptDataEPNS_25IpoptCalculatedQuantitiesE(ptr noundef nonnull align 8 dereferenceable(600) %0, i32 noundef %1, i32 noundef %2, double noundef %3, double noundef %4, double noundef %5, double noundef %6, double noundef %7, double noundef %8, double noundef %9, double noundef %10, i32 noundef %11, ptr noundef %12, ptr noundef %13) unnamed_addr #4 align 2 {
  %15 = alloca ptr, align 8
  %16 = alloca i32, align 4
  %17 = alloca i32, align 4
  %18 = alloca double, align 8
  %19 = alloca double, align 8
  %20 = alloca double, align 8
  %21 = alloca double, align 8
  %22 = alloca double, align 8
  %23 = alloca double, align 8
  %24 = alloca double, align 8
  %25 = alloca double, align 8
  %26 = alloca i32, align 4
  %27 = alloca ptr, align 8
  %28 = alloca ptr, align 8
  store ptr %0, ptr %15, align 8, !tbaa !3
  store i32 %1, ptr %16, align 4, !tbaa !418
  store i32 %2, ptr %17, align 4, !tbaa !98
  store double %3, ptr %18, align 8, !tbaa !145
  store double %4, ptr %19, align 8, !tbaa !145
  store double %5, ptr %20, align 8, !tbaa !145
  store double %6, ptr %21, align 8, !tbaa !145
  store double %7, ptr %22, align 8, !tbaa !145
  store double %8, ptr %23, align 8, !tbaa !145
  store double %9, ptr %24, align 8, !tbaa !145
  store double %10, ptr %25, align 8, !tbaa !145
  store i32 %11, ptr %26, align 4, !tbaa !98
  store ptr %12, ptr %27, align 8, !tbaa !379
  store ptr %13, ptr %28, align 8, !tbaa !380
  %29 = load ptr, ptr %15, align 8
  %30 = getelementptr inbounds nuw %"class.Ipopt::TNLPAdapter", ptr %29, i32 0, i32 1
  %31 = call noundef ptr @_ZNK5Ipopt8SmartPtrINS_4TNLPEEptEv(ptr noundef nonnull align 8 dereferenceable(8) %30)
  %32 = load i32, ptr %16, align 4, !tbaa !418
  %33 = load i32, ptr %17, align 4, !tbaa !98
  %34 = load double, ptr %18, align 8, !tbaa !145
  %35 = load double, ptr %19, align 8, !tbaa !145
  %36 = load double, ptr %20, align 8, !tbaa !145
  %37 = load double, ptr %21, align 8, !tbaa !145
  %38 = load double, ptr %22, align 8, !tbaa !145
  %39 = load double, ptr %23, align 8, !tbaa !145
  %40 = load double, ptr %24, align 8, !tbaa !145
  %41 = load double, ptr %25, align 8, !tbaa !145
  %42 = load i32, ptr %26, align 4, !tbaa !98
  %43 = load ptr, ptr %27, align 8, !tbaa !379
  %44 = load ptr, ptr %28, align 8, !tbaa !380
  %45 = load ptr, ptr %31, align 8, !tbaa !12
  %46 = getelementptr inbounds ptr, ptr %45, i64 19
  %47 = load ptr, ptr %46, align 8
  %48 = call noundef zeroext i1 %47(ptr noundef nonnull align 8 dereferenceable(12) %31, i32 noundef %32, i32 noundef %33, double noundef %34, double noundef %35, double noundef %36, double noundef %37, double noundef %38, double noundef %39, double noundef %40, double noundef %41, i32 noundef %42, ptr noundef %43, ptr noundef %44)
  ret i1 %48
}