; Function Attrs: mustprogress uwtable
define noundef zeroext i1 @_ZN5Ipopt11TNLPAdapter20IntermediateCallBackENS_13AlgorithmModeEiddddddddiPKNS_9IpoptDataEPNS_25IpoptCalculatedQuantitiesE(ptr noundef nonnull readonly align 8 captures(none) dereferenceable(600) %0, i32 noundef %1, i32 noundef %2, double noundef %3, double noundef %4, double noundef %5, double noundef %6, double noundef %7, double noundef %8, double noundef %9, double noundef %10, i32 noundef %11, ptr noundef %12, ptr noundef %13) unnamed_addr #3 align 2 {
  %15 = getelementptr inbounds nuw i8, ptr %0, i64 16
  %16 = load ptr, ptr %15, align 8, !tbaa !10
  %17 = load ptr, ptr %16, align 8, !tbaa !8
  %18 = getelementptr inbounds nuw i8, ptr %17, i64 152
  %19 = load ptr, ptr %18, align 8
  %20 = tail call noundef zeroext i1 %19(ptr noundef nonnull align 8 dereferenceable(12) %16, i32 noundef %1, i32 noundef %2, double noundef %3, double noundef %4, double noundef %5, double noundef %6, double noundef %7, double noundef %8, double noundef %9, double noundef %10, i32 noundef %11, ptr noundef %12, ptr noundef %13)
  ret i1 %20
}